target datalayout = "e-m:e-p270:32:32-p271:32:32-p272:64:64-i64:64-i128:128-f80:128-n8:16:32:64-S128"
target triple = "x86_64-pc-linux-gnu"

%struct.darktable_t = type { %struct.dt_codepath_t, i32, i32, ptr, ptr, ptr, ptr, ptr, ptr, ptr, ptr, ptr, ptr, ptr, ptr, ptr, ptr, ptr, ptr, ptr, ptr, ptr, ptr, ptr, ptr, ptr, ptr, ptr, ptr, ptr, [64 x %struct.dt_pthread_mutex_t], %struct.dt_pthread_mutex_t, %struct.dt_pthread_mutex_t, %struct.dt_pthread_mutex_t, %struct.dt_pthread_mutex_t, %struct.dt_pthread_mutex_t, ptr, ptr, ptr, ptr, ptr, ptr, ptr, ptr, ptr, ptr, ptr, ptr, ptr, %struct.dt_lua_state_t, ptr, double, ptr, i32, [47 x i32], i32, i32, ptr, ptr, %struct.dt_sys_resources_t, %struct.dt_backthumb_t, %struct.dt_gimp_t }
%struct.dt_codepath_t = type { i8, [3 x i8] }
%struct.dt_pthread_mutex_t = type { %union.pthread_mutex_t }
%union.pthread_mutex_t = type { %struct.__pthread_mutex_s }
%struct.__pthread_mutex_s = type { i32, i32, i32, i32, i32, i16, i16, %struct.__pthread_internal_list }
%struct.__pthread_internal_list = type { ptr, ptr }
%struct.dt_lua_state_t = type { i32 }
%struct.dt_sys_resources_t = type { i64, i64, ptr, ptr, i32 }
%struct.dt_backthumb_t = type { double, double, i32, i32, i32, i32 }
%struct.dt_gimp_t = type { i32, ptr, ptr, i32, i32 }

@darktable = external global %struct.darktable_t, align 8

; Function Attrs: nounwind uwtable
define i32 @dt_datetime_gtimespan_to_local(ptr noundef %0, i64 noundef %1, i64 noundef %2, i32 noundef %3, i32 noundef %4) #0 {
  %6 = alloca i32, align 4
  %7 = alloca ptr, align 8
  %8 = alloca i64, align 8
  %9 = alloca i64, align 8
  %10 = alloca i32, align 4
  %11 = alloca i32, align 4
  %12 = alloca i32, align 4
  %13 = alloca i32, align 4
  %14 = alloca ptr, align 8
  store ptr %0, ptr %7, align 8, !tbaa !60
  store i64 %1, ptr %8, align 8, !tbaa !67
  store i64 %2, ptr %9, align 8, !tbaa !67
  store i32 %3, ptr %10, align 4, !tbaa !62
  store i32 %4, ptr %11, align 4, !tbaa !62
  call void @llvm.lifetime.start.p0(i64 4, ptr %12) #7
  store i32 0, ptr %12, align 4, !tbaa !62
  %15 = load ptr, ptr %7, align 8, !tbaa !60
  %16 = icmp ne ptr %15, null
  br i1 %16, label %17, label %20

17:                                               ; preds = %5
  %18 = load i64, ptr %8, align 8, !tbaa !67
  %19 = icmp ne i64 %18, 0
  br i1 %19, label %21, label %20

20:                                               ; preds = %17, %5
  store i32 0, ptr %6, align 4
  store i32 1, ptr %13, align 4
  br label %39

21:                                               ; preds = %17
  %22 = load ptr, ptr %7, align 8, !tbaa !60
  %23 = getelementptr inbounds i8, ptr %22, i64 0
  store i8 0, ptr %23, align 1, !tbaa !61
  call void @llvm.lifetime.start.p0(i64 8, ptr %14) #7
  %24 = load ptr, ptr getelementptr inbounds nuw (%struct.darktable_t, ptr @darktable, i32 0, i32 58), align 8, !tbaa !48
  %25 = load i64, ptr %9, align 8, !tbaa !67
  %26 = call ptr @g_date_time_add(ptr noundef %24, i64 noundef %25)
  store ptr %26, ptr %14, align 8, !tbaa !51
  %27 = load ptr, ptr %14, align 8, !tbaa !51
  %28 = icmp ne ptr %27, null
  br i1 %28, label %29, label %37

29:                                               ; preds = %21
  %30 = load ptr, ptr %7, align 8, !tbaa !60
  %31 = load i64, ptr %8, align 8, !tbaa !67
  %32 = load ptr, ptr %14, align 8, !tbaa !51
  %33 = load i32, ptr %10, align 4, !tbaa !62
  %34 = load i32, ptr %11, align 4, !tbaa !62
  %35 = call i32 @dt_datetime_gdatetime_to_local(ptr noundef %30, i64 noundef %31, ptr noundef %32, i32 noundef %33, i32 noundef %34)
  store i32 %35, ptr %12, align 4, !tbaa !62
  %36 = load ptr, ptr %14, align 8, !tbaa !51
  call void @g_date_time_unref(ptr noundef %36)
  br label %37

37:                                               ; preds = %29, %21
  %38 = load i32, ptr %12, align 4, !tbaa !62
  store i32 %38, ptr %6, align 4
  store i32 1, ptr %13, align 4
  call void @llvm.lifetime.end.p0(i64 8, ptr %14) #7
  br label %39

39:                                               ; preds = %37, %20
  call void @llvm.lifetime.end.p0(i64 4, ptr %12) #7
  %40 = load i32, ptr %6, align 4
  ret i32 %40
}