; Function Attrs: nounwind uwtable
define range(i32 0, 2) i32 @dt_datetime_gtimespan_to_local(ptr noundef %0, i64 noundef %1, i64 noundef %2, i32 noundef %3, i32 noundef %4) local_unnamed_addr #0 {
  %6 = icmp ne ptr %0, null
  %7 = icmp ne i64 %1, 0
  %or.cond = and i1 %6, %7
  br i1 %or.cond, label %8, label %13

8:                                                ; preds = %5
  store i8 0, ptr %0, align 1, !tbaa !57
  %9 = load ptr, ptr getelementptr inbounds nuw (i8, ptr @darktable, i64 3336), align 8, !tbaa !48
  %10 = tail call ptr @g_date_time_add(ptr noundef %9, i64 noundef %2) #7
  %.not = icmp eq ptr %10, null
  br i1 %.not, label %13, label %11

11:                                               ; preds = %8
  %12 = tail call i32 @dt_datetime_gdatetime_to_local(ptr noundef nonnull %0, i64 noundef %1, ptr noundef nonnull %10, i32 noundef %3, i32 noundef %4)
  tail call void @g_date_time_unref(ptr noundef nonnull %10) #7
  br label %13

13:                                               ; preds = %8, %11, %5
  %.0 = phi i32 [ 0, %5 ], [ %12, %11 ], [ 0, %8 ]
  ret i32 %.0
}